target datalayout = "e-m:e-p270:32:32-p271:32:32-p272:64:64-i64:64-i128:128-f80:128-n8:16:32:64-S128"
target triple = "x86_64-pc-linux-gnu"

%class.RangeCoder = type { i32, i32, i32, %"struct.RangeCoder::SUBRANGE", ptr }
%"struct.RangeCoder::SUBRANGE" = type { i32, i32, i32 }
%class.SubAllocator = type { i64, [38 x i8], [128 x i8], i8, ptr, ptr, ptr, [38 x %"struct.SubAllocator::RAR_NODE"], ptr, ptr, ptr, ptr }
%"struct.SubAllocator::RAR_NODE" = type { ptr }
%class.ModelPPM = type <{ i8, [25 x [16 x %struct.RARPPM_SEE2_CONTEXT]], %struct.RARPPM_SEE2_CONTEXT, [3 x i8], ptr, ptr, ptr, ptr, i32, i32, i32, i32, i32, i32, [256 x i8], [256 x i8], [256 x i8], [256 x i8], i8, i8, i8, i8, [128 x [64 x i16]], [4 x i8], %class.RangeCoder, %class.SubAllocator }>
%struct.RARPPM_SEE2_CONTEXT = type { i16, i8, i8 }
%class.Unpack = type { ptr, %class.BitInput, %class.Array, %class.Array, %class.Array.0, [4 x i32], i32, i32, i32, i64, i64, i32, i32, %struct.UnpackBlockHeader, %struct.UnpackBlockTables, i64, ptr, %class.FragmentedWindow, i8, i64, i8, i8, i8, i64, i8, [256 x i16], [256 x i16], [256 x i16], [256 x i16], [256 x i8], [256 x i8], [256 x i8], i32, i32, i32, i32, i32, i32, i32, i32, i32, i32, i32, i32, i32, i32, [4 x %struct.DecodeTable], [1028 x i8], i8, i32, i32, i32, [4 x %struct.AudioVariables], i32, i32, %class.ModelPPM, i32, [404 x i8], i32, i8, i8, i8, %class.RarVM, %class.BitInput, %class.Array.1, %class.Array.1, %class.Array.2, i32, i64, i64 }
%class.Array = type { ptr, i64, i64, i64 }
%class.Array.0 = type { ptr, i64, i64, i64 }
%struct.UnpackBlockHeader = type { i32, i32, i32, i32, i8, i8 }
%struct.UnpackBlockTables = type { %struct.DecodeTable, %struct.DecodeTable, %struct.DecodeTable, %struct.DecodeTable, %struct.DecodeTable }
%struct.DecodeTable = type { i32, [16 x i32], [16 x i32], i32, [1024 x i8], [1024 x i16], [306 x i16] }
%class.FragmentedWindow = type { [32 x ptr], [32 x i64] }
%struct.AudioVariables = type { i32, i32, i32, i32, i32, i32, i32, i32, i32, i32, [11 x i32], i32, i32 }
%class.RarVM = type { ptr, [8 x i32] }
%class.BitInput = type { i32, i32, i8, ptr }
%class.Array.1 = type { ptr, i64, i64, i64 }
%class.Array.2 = type { ptr, i64, i64, i64 }

; Function Attrs: mustprogress nounwind uwtable
define void @_ZN6Unpack13UnpInitData15Ei(ptr noundef nonnull align 8 dereferenceable(59688) %0, i32 noundef %1) #1 align 2 {
  %3 = alloca ptr, align 8
  %4 = alloca i32, align 4
  store ptr %0, ptr %3, align 8
  store i32 %1, ptr %4, align 4
  %5 = load ptr, ptr %3, align 8
  %6 = load i32, ptr %4, align 4
  %7 = icmp ne i32 %6, 0
  br i1 %7, label %19, label %8

8:                                                ; preds = %2
  %9 = getelementptr inbounds %class.Unpack, ptr %5, i32 0, i32 38
  store i32 0, ptr %9, align 4
  %10 = getelementptr inbounds %class.Unpack, ptr %5, i32 0, i32 39
  store i32 0, ptr %10, align 8
  %11 = getelementptr inbounds %class.Unpack, ptr %5, i32 0, i32 37
  store i32 0, ptr %11, align 8
  %12 = getelementptr inbounds %class.Unpack, ptr %5, i32 0, i32 36
  store i32 0, ptr %12, align 4
  %13 = getelementptr inbounds %class.Unpack, ptr %5, i32 0, i32 35
  store i32 0, ptr %13, align 8
  %14 = getelementptr inbounds %class.Unpack, ptr %5, i32 0, i32 34
  store i32 0, ptr %14, align 4
  %15 = getelementptr inbounds %class.Unpack, ptr %5, i32 0, i32 33
  store i32 13568, ptr %15, align 8
  %16 = getelementptr inbounds %class.Unpack, ptr %5, i32 0, i32 45
  store i32 8193, ptr %16, align 8
  %17 = getelementptr inbounds %class.Unpack, ptr %5, i32 0, i32 44
  store i32 128, ptr %17, align 4
  %18 = getelementptr inbounds %class.Unpack, ptr %5, i32 0, i32 43
  store i32 128, ptr %18, align 8
  br label %19

19:                                               ; preds = %8, %2
  %20 = getelementptr inbounds %class.Unpack, ptr %5, i32 0, i32 42
  store i32 0, ptr %20, align 4
  %21 = getelementptr inbounds %class.Unpack, ptr %5, i32 0, i32 32
  store i32 0, ptr %21, align 4
  %22 = getelementptr inbounds %class.Unpack, ptr %5, i32 0, i32 40
  store i32 0, ptr %22, align 4
  %23 = getelementptr inbounds %class.Unpack, ptr %5, i32 0, i32 41
  store i32 0, ptr %23, align 8
  %24 = getelementptr inbounds %class.Unpack, ptr %5, i32 0, i32 11
  store i32 0, ptr %24, align 8
  ret void
}