; Function Attrs: mustprogress nofree norecurse nosync nounwind willreturn memory(argmem: write) uwtable
define void @_ZN6Unpack13UnpInitData15Ei(ptr nocapture noundef nonnull writeonly align 8 dereferenceable(59688) %0, i32 noundef %1) local_unnamed_addr #1 align 2 {
  %.not = icmp eq i32 %1, 0
  br i1 %.not, label %3, label %9

3:                                                ; preds = %2
  %4 = getelementptr inbounds i8, ptr %0, i64 22692
  %5 = getelementptr inbounds i8, ptr %0, i64 22688
  tail call void @llvm.memset.p0.i64(ptr noundef nonnull align 4 dereferenceable(24) %4, i8 0, i64 24, i1 false)
  store i32 13568, ptr %5, align 8
  %6 = getelementptr inbounds i8, ptr %0, i64 22736
  store i32 8193, ptr %6, align 8
  %7 = getelementptr inbounds i8, ptr %0, i64 22732
  store i32 128, ptr %7, align 4
  %8 = getelementptr inbounds i8, ptr %0, i64 22728
  store i32 128, ptr %8, align 8
  br label %9

9:                                                ; preds = %3, %2
  %10 = getelementptr inbounds i8, ptr %0, i64 22724
  store i32 0, ptr %10, align 4
  %11 = getelementptr inbounds i8, ptr %0, i64 22684
  store i32 0, ptr %11, align 4
  %12 = getelementptr inbounds i8, ptr %0, i64 22716
  store i32 0, ptr %12, align 4
  %13 = getelementptr inbounds i8, ptr %0, i64 22720
  store i32 0, ptr %13, align 8
  %14 = getelementptr inbounds i8, ptr %0, i64 176
  store i32 0, ptr %14, align 8
  ret void
}